(ibuildbot.changes.changes
ChangeMaster
p1
(dp2
S'name'
p3
S'changemaster'
p4
sS'basedir'
p5
S'/Users/davidcox/Repositories/monkeyworks/mw_build/buildbot_master'
p6
sS'changes'
p7
(lp8
sS'nextNumber'
p9
I1
sb.